target datalayout = "e-m:e-p270:32:32-p271:32:32-p272:64:64-i64:64-i128:128-f80:128-n8:16:32:64-S128"
target triple = "x86_64-pc-linux-gnu"

%struct.FLAC__OggDecoderAspect = type { i32, i64, %struct.ogg_stream_state, %struct.ogg_sync_state, i32, i32, i32, i32, i32, i32, i32, i32, i32, %struct.ogg_page, i32, %struct.ogg_packet, ptr, %struct.FLAC__OggDecoderAspect_TargetLink, i32, i32, i32, i32, i32, i32 }
%struct.ogg_stream_state = type { ptr, i64, i64, i64, ptr, ptr, i64, i64, i64, i64, [282 x i8], i32, i32, i32, i64, i64, i64, i64 }
%struct.ogg_sync_state = type { ptr, i32, i32, i32, i32, i32, i32 }
%struct.ogg_page = type { ptr, i64, ptr, i64 }
%struct.ogg_packet = type { ptr, i64, i64, i64, i64, i64 }
%struct.FLAC__OggDecoderAspect_TargetLink = type { i64, i64, i64, i64, i64, i32 }

; Function Attrs: inlinehint nounwind sspstrong uwtable
define internal ptr @safe_realloc_(ptr noundef %0, i64 noundef %1) #2 {
  %3 = alloca ptr, align 8
  %4 = alloca i64, align 8
  %5 = alloca ptr, align 8
  %6 = alloca ptr, align 8
  store ptr %0, ptr %3, align 8, !tbaa !35
  store i64 %1, ptr %4, align 8, !tbaa !36
  call void @llvm.lifetime.start.p0(i64 8, ptr %5) #9
  call void @llvm.lifetime.start.p0(i64 8, ptr %6) #9
  %7 = load ptr, ptr %3, align 8, !tbaa !35
  store ptr %7, ptr %5, align 8, !tbaa !35
  %8 = load ptr, ptr %3, align 8, !tbaa !35
  %9 = load i64, ptr %4, align 8, !tbaa !36
  %10 = call ptr @realloc(ptr noundef %8, i64 noundef %9) #10
  store ptr %10, ptr %6, align 8, !tbaa !35
  %11 = load i64, ptr %4, align 8, !tbaa !36
  %12 = icmp ugt i64 %11, 0
  br i1 %12, label %13, label %18

13:                                               ; preds = %2
  %14 = load ptr, ptr %6, align 8, !tbaa !35
  %15 = icmp eq ptr %14, null
  br i1 %15, label %16, label %18

16:                                               ; preds = %13
  %17 = load ptr, ptr %5, align 8, !tbaa !35
  call void @free(ptr noundef %17) #9
  br label %18

18:                                               ; preds = %16, %13, %2
  %19 = load ptr, ptr %6, align 8, !tbaa !35
  call void @llvm.lifetime.end.p0(i64 8, ptr %6) #9
  call void @llvm.lifetime.end.p0(i64 8, ptr %5) #9
  ret ptr %19
}

; Function Attrs: alwaysinline nounwind
define internal ptr @memset.inline(ptr nonnull %0, i32 %1, i64 %2) #3 {
  %4 = alloca ptr, align 8
  %5 = alloca i32, align 4
  %6 = alloca i64, align 8
  store ptr %0, ptr %4, align 8, !tbaa !35
  store i32 %1, ptr %5, align 4, !tbaa !37
  store i64 %2, ptr %6, align 8, !tbaa !36
  %7 = load ptr, ptr %4, align 8, !tbaa !35
  %8 = load i32, ptr %5, align 4, !tbaa !37
  %9 = load i64, ptr %6, align 8, !tbaa !36
  %10 = load ptr, ptr %4, align 8, !tbaa !35
  %11 = call i64 @llvm.objectsize.i64.p0(ptr %10, i1 false, i1 true, i1 false)
  %12 = call ptr @__memset_chk(ptr noundef %7, i32 noundef %8, i64 noundef %9, i64 noundef %11) #9
  ret ptr %12
}

; Function Attrs: inlinehint nounwind sspstrong uwtable
define internal ptr @safe_realloc_mul_2op_(ptr noundef %0, i64 noundef %1, i64 noundef %2) #2 {
  %4 = alloca ptr, align 8
  %5 = alloca ptr, align 8
  %6 = alloca i64, align 8
  %7 = alloca i64, align 8
  store ptr %0, ptr %5, align 8, !tbaa !35
  store i64 %1, ptr %6, align 8, !tbaa !36
  store i64 %2, ptr %7, align 8, !tbaa !36
  %8 = load i64, ptr %6, align 8, !tbaa !36
  %9 = icmp ne i64 %8, 0
  br i1 %9, label %10, label %13

10:                                               ; preds = %3
  %11 = load i64, ptr %7, align 8, !tbaa !36
  %12 = icmp ne i64 %11, 0
  br i1 %12, label %16, label %13

13:                                               ; preds = %10, %3
  %14 = load ptr, ptr %5, align 8, !tbaa !35
  %15 = call ptr @realloc(ptr noundef %14, i64 noundef 0) #10
  store ptr %15, ptr %4, align 8
  br label %29

16:                                               ; preds = %10
  %17 = load i64, ptr %6, align 8, !tbaa !36
  %18 = load i64, ptr %7, align 8, !tbaa !36
  %19 = udiv i64 -1, %18
  %20 = icmp ugt i64 %17, %19
  br i1 %20, label %21, label %23

21:                                               ; preds = %16
  %22 = load ptr, ptr %5, align 8, !tbaa !35
  call void @free(ptr noundef %22) #9
  store ptr null, ptr %4, align 8
  br label %29

23:                                               ; preds = %16
  %24 = load ptr, ptr %5, align 8, !tbaa !35
  %25 = load i64, ptr %6, align 8, !tbaa !36
  %26 = load i64, ptr %7, align 8, !tbaa !36
  %27 = mul i64 %25, %26
  %28 = call ptr @safe_realloc_(ptr noundef %24, i64 noundef %27)
  store ptr %28, ptr %4, align 8
  br label %29

29:                                               ; preds = %23, %21, %13
  %30 = load ptr, ptr %4, align 8
  ret ptr %30
}

; Function Attrs: nounwind sspstrong uwtable
define hidden i32 @FLAC__ogg_decoder_aspect_init(ptr noundef %0) #0 {
  %2 = alloca i32, align 4
  %3 = alloca ptr, align 8
  store ptr %0, ptr %3, align 8, !tbaa !3
  %4 = load ptr, ptr %3, align 8, !tbaa !3
  %5 = getelementptr inbounds nuw %struct.FLAC__OggDecoderAspect, ptr %4, i32 0, i32 2
  %6 = load ptr, ptr %3, align 8, !tbaa !3
  %7 = getelementptr inbounds nuw %struct.FLAC__OggDecoderAspect, ptr %6, i32 0, i32 1
  %8 = load i64, ptr %7, align 8, !tbaa !8
  %9 = trunc i64 %8 to i32
  %10 = call i32 @ogg_stream_init(ptr noundef %5, i32 noundef %9)
  %11 = icmp ne i32 %10, 0
  br i1 %11, label %12, label %13

12:                                               ; preds = %1
  store i32 0, ptr %2, align 4
  br label %66

13:                                               ; preds = %1
  %14 = load ptr, ptr %3, align 8, !tbaa !3
  %15 = getelementptr inbounds nuw %struct.FLAC__OggDecoderAspect, ptr %14, i32 0, i32 3
  %16 = call i32 @ogg_sync_init(ptr noundef %15)
  %17 = icmp ne i32 %16, 0
  br i1 %17, label %18, label %19

18:                                               ; preds = %13
  store i32 0, ptr %2, align 4
  br label %66

19:                                               ; preds = %13
  %20 = load ptr, ptr %3, align 8, !tbaa !3
  %21 = getelementptr inbounds nuw %struct.FLAC__OggDecoderAspect, ptr %20, i32 0, i32 4
  store i32 -1, ptr %21, align 8, !tbaa !21
  %22 = load ptr, ptr %3, align 8, !tbaa !3
  %23 = getelementptr inbounds nuw %struct.FLAC__OggDecoderAspect, ptr %22, i32 0, i32 5
  store i32 -1, ptr %23, align 4, !tbaa !22
  %24 = load ptr, ptr %3, align 8, !tbaa !3
  %25 = getelementptr inbounds nuw %struct.FLAC__OggDecoderAspect, ptr %24, i32 0, i32 0
  %26 = load i32, ptr %25, align 8, !tbaa !23
  %27 = icmp ne i32 %26, 0
  br i1 %27, label %33, label %28

28:                                               ; preds = %19
  %29 = load ptr, ptr %3, align 8, !tbaa !3
  %30 = getelementptr inbounds nuw %struct.FLAC__OggDecoderAspect, ptr %29, i32 0, i32 11
  %31 = load i32, ptr %30, align 4, !tbaa !24
  %32 = icmp ne i32 %31, 0
  br label %33

33:                                               ; preds = %28, %19
  %34 = phi i1 [ true, %19 ], [ %32, %28 ]
  %35 = zext i1 %34 to i32
  %36 = load ptr, ptr %3, align 8, !tbaa !3
  %37 = getelementptr inbounds nuw %struct.FLAC__OggDecoderAspect, ptr %36, i32 0, i32 6
  store i32 %35, ptr %37, align 8, !tbaa !25
  %38 = load ptr, ptr %3, align 8, !tbaa !3
  %39 = getelementptr inbounds nuw %struct.FLAC__OggDecoderAspect, ptr %38, i32 0, i32 9
  store i32 0, ptr %39, align 4, !tbaa !26
  %40 = load ptr, ptr %3, align 8, !tbaa !3
  %41 = getelementptr inbounds nuw %struct.FLAC__OggDecoderAspect, ptr %40, i32 0, i32 12
  store i32 0, ptr %41, align 8, !tbaa !27
  %42 = load ptr, ptr %3, align 8, !tbaa !3
  %43 = getelementptr inbounds nuw %struct.FLAC__OggDecoderAspect, ptr %42, i32 0, i32 10
  store i32 0, ptr %43, align 8, !tbaa !28
  %44 = load ptr, ptr %3, align 8, !tbaa !3
  %45 = getelementptr inbounds nuw %struct.FLAC__OggDecoderAspect, ptr %44, i32 0, i32 21
  store i32 0, ptr %45, align 4, !tbaa !29
  %46 = load ptr, ptr %3, align 8, !tbaa !3
  %47 = getelementptr inbounds nuw %struct.FLAC__OggDecoderAspect, ptr %46, i32 0, i32 22
  store i32 0, ptr %47, align 8, !tbaa !30
  %48 = load ptr, ptr %3, align 8, !tbaa !3
  %49 = getelementptr inbounds nuw %struct.FLAC__OggDecoderAspect, ptr %48, i32 0, i32 19
  store i32 0, ptr %49, align 4, !tbaa !31
  %50 = load ptr, ptr %3, align 8, !tbaa !3
  %51 = getelementptr inbounds nuw %struct.FLAC__OggDecoderAspect, ptr %50, i32 0, i32 18
  store i32 0, ptr %51, align 8, !tbaa !32
  %52 = load ptr, ptr %3, align 8, !tbaa !3
  %53 = getelementptr inbounds nuw %struct.FLAC__OggDecoderAspect, ptr %52, i32 0, i32 20
  store i32 0, ptr %53, align 8, !tbaa !33
  %54 = call ptr @safe_realloc_mul_2op_(ptr noundef null, i64 noundef 4, i64 noundef 56)
  %55 = load ptr, ptr %3, align 8, !tbaa !3
  %56 = getelementptr inbounds nuw %struct.FLAC__OggDecoderAspect, ptr %55, i32 0, i32 16
  store ptr %54, ptr %56, align 8, !tbaa !34
  %57 = icmp eq ptr null, %54
  br i1 %57, label %58, label %59

58:                                               ; preds = %33
  store i32 0, ptr %2, align 4
  br label %66

59:                                               ; preds = %33
  %60 = load ptr, ptr %3, align 8, !tbaa !3
  %61 = getelementptr inbounds nuw %struct.FLAC__OggDecoderAspect, ptr %60, i32 0, i32 16
  %62 = load ptr, ptr %61, align 8, !tbaa !34
  %63 = call ptr @memset.inline(ptr noundef %62, i32 noundef 0, i64 noundef 224) #9
  %64 = load ptr, ptr %3, align 8, !tbaa !3
  %65 = getelementptr inbounds nuw %struct.FLAC__OggDecoderAspect, ptr %64, i32 0, i32 20
  store i32 4, ptr %65, align 8, !tbaa !33
  store i32 1, ptr %2, align 4
  br label %66

66:                                               ; preds = %59, %58, %18, %12
  %67 = load i32, ptr %2, align 4
  ret i32 %67
}