; Function Attrs: nounwind sspstrong uwtable
define hidden range(i32 0, 2) i32 @FLAC__ogg_decoder_aspect_init(ptr noundef %0) local_unnamed_addr #0 {
  %2 = getelementptr inbounds nuw i8, ptr %0, i64 16
  %3 = getelementptr inbounds nuw i8, ptr %0, i64 8
  %4 = load i64, ptr %3, align 8, !tbaa !3
  %5 = trunc i64 %4 to i32
  %6 = tail call i32 @ogg_stream_init(ptr noundef nonnull %2, i32 noundef %5) #15
  %.not = icmp eq i32 %6, 0
  br i1 %.not, label %7, label %30

7:                                                ; preds = %1
  %8 = getelementptr inbounds nuw i8, ptr %0, i64 424
  %9 = tail call i32 @ogg_sync_init(ptr noundef nonnull %8) #15
  %.not20 = icmp eq i32 %9, 0
  br i1 %.not20, label %10, label %30

10:                                               ; preds = %7
  %11 = getelementptr inbounds nuw i8, ptr %0, i64 456
  store i32 -1, ptr %11, align 8, !tbaa !19
  %12 = getelementptr inbounds nuw i8, ptr %0, i64 460
  store i32 -1, ptr %12, align 4, !tbaa !20
  %13 = load i32, ptr %0, align 8, !tbaa !21
  %.not21 = icmp eq i32 %13, 0
  br i1 %.not21, label %14, label %19

14:                                               ; preds = %10
  %15 = getelementptr inbounds nuw i8, ptr %0, i64 484
  %16 = load i32, ptr %15, align 4, !tbaa !22
  %17 = icmp ne i32 %16, 0
  %18 = zext i1 %17 to i32
  br label %19

19:                                               ; preds = %14, %10
  %20 = phi i32 [ 1, %10 ], [ %18, %14 ]
  %21 = getelementptr inbounds nuw i8, ptr %0, i64 464
  store i32 %20, ptr %21, align 8, !tbaa !23
  %22 = getelementptr inbounds nuw i8, ptr %0, i64 476
  store i32 0, ptr %22, align 4, !tbaa !24
  %23 = getelementptr inbounds nuw i8, ptr %0, i64 488
  store i32 0, ptr %23, align 8, !tbaa !25
  %24 = getelementptr inbounds nuw i8, ptr %0, i64 480
  store i32 0, ptr %24, align 8, !tbaa !26
  %25 = getelementptr inbounds nuw i8, ptr %0, i64 640
  %calloc = tail call dereferenceable_or_null(224) ptr @calloc(i64 1, i64 224)
  %26 = getelementptr inbounds nuw i8, ptr %0, i64 584
  tail call void @llvm.memset.p0.i64(ptr noundef nonnull align 8 dereferenceable(20) %25, i8 0, i64 20, i1 false)
  store ptr %calloc, ptr %26, align 8, !tbaa !27
  %27 = icmp eq ptr %calloc, null
  br i1 %27, label %30, label %28

28:                                               ; preds = %19
  %29 = getelementptr inbounds nuw i8, ptr %0, i64 648
  store i32 4, ptr %29, align 8, !tbaa !28
  br label %30

30:                                               ; preds = %19, %7, %1, %28
  %.0 = phi i32 [ 1, %28 ], [ 0, %1 ], [ 0, %7 ], [ 0, %19 ]
  ret i32 %.0
}